Certificate:
    Data:
        Version: 3 (0x2)
        Serial Number:
            8f:0a:b7:a8:dd:5a:1d:1f
    Signature Algorithm: sha1WithRSAEncryption
        Issuer: C=UK, ST=-, O=u1db LOCAL TESTING ONLY, DO NO TRUST, CN=u1db testing CA
        Validity
            Not Before: Apr 27 20:53:16 2012 GMT
            Not After : Apr 25 20:53:16 2023 GMT
        Subject: C=UK, ST=-, O=u1db LOCAL TESTING ONLY, DO NO TRUST, CN=u1db testing CA
        Subject Public Key Info:
            Public Key Algorithm: rsaEncryption
                Public-Key: (1024 bit)
                Modulus:
                    00:d4:f5:80:67:b9:1f:a4:dc:a8:5c:7a:53:eb:18:
                    b7:bd:bc:ac:34:af:55:6e:62:88:e2:06:8e:4a:25:
                    00:6c:98:0d:35:27:47:9e:11:53:ff:2e:2d:d3:04:
                    b8:4f:bb:11:fe:18:bf:c9:bb:0b:65:4d:d4:7b:e8:
                    0e:5a:af:cb:c2:f3:be:5c:b4:55:1a:ad:0a:d5:72:
                    3d:24:71:12:10:ce:54:2d:9b:55:52:d2:2d:48:19:
                    0b:a5:a2:06:d8:9f:b6:de:7b:ce:e5:98:eb:6c:67:
                    67:41:f4:b2:d8:3c:53:f7:bd:c5:0e:3d:09:2f:3b:
                    db:f7:9d:f7:ef:77:c5:c6:eb
                Exponent: 65537 (0x10001)
        X509v3 extensions:
            X509v3 Subject Key Identifier: 
                F9:A4:95:C1:82:CD:F7:3C:0F:C1:04:80:74:CC:77:B5:72:AE:06:52
            X509v3 Authority Key Identifier: 
                keyid:F9:A4:95:C1:82:CD:F7:3C:0F:C1:04:80:74:CC:77:B5:72:AE:06:52

            X509v3 Basic Constraints: 
                CA:TRUE
    Signature Algorithm: sha1WithRSAEncryption
         a1:bb:e1:08:e5:24:7e:e6:b2:93:f7:a2:46:6e:0a:97:37:ba:
         54:96:b2:3c:19:b7:94:bf:9e:84:00:91:ea:c6:fd:17:66:c8:
         19:2c:77:7b:5a:b1:a3:88:1b:54:eb:9c:b2:f2:9b:d2:d8:be:
         96:58:93:19:26:43:0a:3c:89:98:ed:30:ed:02:cc:57:c3:e2:
         0a:f0:7a:ce:9a:b3:54:c6:71:5b:d5:2c:e2:8e:83:e7:1b:9a:
         1f:f1:af:d4:32:91:99:ce:7b:a9:5e:32:f0:d9:25:cf:d3:54:
         1d:7b:c9:4a:8f:48:f5:ef:64:fe:f7:46:2e:80:f8:aa:d0:9a:
         b0:7d
-----BEGIN CERTIFICATE-----
MIICkjCCAfugAwIBAgIJAI8Kt6jdWh0fMA0GCSqGSIb3DQEBBQUAMGIxCzAJBgNV
BAYTAlVLMQowCAYDVQQIDAEtMS0wKwYDVQQKDCR1MWRiIExPQ0FMIFRFU1RJTkcg
T05MWSwgRE8gTk8gVFJVU1QxGDAWBgNVBAMMD3UxZGIgdGVzdGluZyBDQTAeFw0x
MjA0MjcyMDUzMTZaFw0yMzA0MjUyMDUzMTZaMGIxCzAJBgNVBAYTAlVLMQowCAYD
VQQIDAEtMS0wKwYDVQQKDCR1MWRiIExPQ0FMIFRFU1RJTkcgT05MWSwgRE8gTk8g
VFJVU1QxGDAWBgNVBAMMD3UxZGIgdGVzdGluZyBDQTCBnzANBgkqhkiG9w0BAQEF
AAOBjQAwgYkCgYEA1PWAZ7kfpNyoXHpT6xi3vbysNK9VbmKI4gaOSiUAbJgNNSdH
nhFT/y4t0wS4T7sR/hi/ybsLZU3Ue+gOWq/LwvO+XLRVGq0K1XI9JHESEM5ULZtV
UtItSBkLpaIG2J+23nvO5ZjrbGdnQfSy2DxT973FDj0JLzvb953373fFxusCAwEA
AaNQME4wHQYDVR0OBBYEFPmklcGCzfc8D8EEgHTMd7VyrgZSMB8GA1UdIwQYMBaA
FPmklcGCzfc8D8EEgHTMd7VyrgZSMAwGA1UdEwQFMAMBAf8wDQYJKoZIhvcNAQEF
BQADgYEAobvhCOUkfuayk/eiRm4Klze6VJayPBm3lL+ehACR6sb9F2bIGSx3e1qx
o4gbVOucsvKb0ti+lliTGSZDCjyJmO0w7QLMV8PiCvB6zpqzVMZxW9Us4o6D5xua
H/Gv1DKRmc57qV4y8Nklz9NUHXvJSo9I9e9k/vdGLoD4qtCasH0=
-----END CERTIFICATE-----
